target datalayout = "e-m:e-p270:32:32-p271:32:32-p272:64:64-i64:64-i128:128-f80:128-n8:16:32:64-S128"
target triple = "x86_64-pc-linux-gnu"

%struct.stack_st = type { i64, ptr, i64, i64, ptr }

; Function Attrs: nounwind uwtable
define hidden ptr @sk_set(ptr noundef %0, i64 noundef %1, ptr noundef %2) #0 {
  %4 = alloca ptr, align 8
  %5 = alloca ptr, align 8
  %6 = alloca i64, align 8
  %7 = alloca ptr, align 8
  store ptr %0, ptr %5, align 8, !tbaa !10
  store i64 %1, ptr %6, align 8, !tbaa !19
  store ptr %2, ptr %7, align 8, !tbaa !6
  %8 = load ptr, ptr %5, align 8, !tbaa !10
  %9 = icmp ne ptr %8, null
  br i1 %9, label %10, label %16

10:                                               ; preds = %3
  %11 = load i64, ptr %6, align 8, !tbaa !19
  %12 = load ptr, ptr %5, align 8, !tbaa !10
  %13 = getelementptr inbounds nuw %struct.stack_st, ptr %12, i32 0, i32 0
  %14 = load i64, ptr %13, align 8, !tbaa !17
  %15 = icmp uge i64 %11, %14
  br i1 %15, label %16, label %17

16:                                               ; preds = %10, %3
  store ptr null, ptr %4, align 8
  br label %24

17:                                               ; preds = %10
  %18 = load ptr, ptr %7, align 8, !tbaa !6
  %19 = load ptr, ptr %5, align 8, !tbaa !10
  %20 = getelementptr inbounds nuw %struct.stack_st, ptr %19, i32 0, i32 1
  %21 = load ptr, ptr %20, align 8, !tbaa !12
  %22 = load i64, ptr %6, align 8, !tbaa !19
  %23 = getelementptr inbounds nuw ptr, ptr %21, i64 %22
  store ptr %18, ptr %23, align 8, !tbaa !6
  store ptr %18, ptr %4, align 8
  br label %24

24:                                               ; preds = %17, %16
  %25 = load ptr, ptr %4, align 8
  ret ptr %25
}