; Function Attrs: mustprogress nofree norecurse nosync nounwind willreturn memory(write, argmem: readwrite, inaccessiblemem: none) uwtable
define hidden noundef ptr @sk_set(ptr noundef readonly captures(address_is_null) %0, i64 noundef %1, ptr noundef %2) local_unnamed_addr #4 {
  %.not = icmp eq ptr %0, null
  br i1 %.not, label %10, label %4

4:                                                ; preds = %3
  %5 = load i64, ptr %0, align 8, !tbaa !14
  %.not8 = icmp ult i64 %1, %5
  br i1 %.not8, label %6, label %10

6:                                                ; preds = %4
  %7 = getelementptr inbounds nuw i8, ptr %0, i64 8
  %8 = load ptr, ptr %7, align 8, !tbaa !6
  %9 = getelementptr inbounds nuw ptr, ptr %8, i64 %1
  store ptr %2, ptr %9, align 8, !tbaa !16
  br label %10

10:                                               ; preds = %3, %4, %6
  %.0 = phi ptr [ %2, %6 ], [ null, %4 ], [ null, %3 ]
  ret ptr %.0
}